(lp0
L15L
aL99679L
aL120611L
aL155959L
aL175877L
aL321151L
aL327536L
aL520296L
aL555746L
aL731016L
aL805206L
aL894041L
aL1000015L
aL1579206L
aL1589970L
aL1812422L
aL1821428L
aL2696741L
aL2696755L
aL2696806L
aL2696928L
aL3022892L
aL3684477L
aL3684522L
aL3684556L
aL3684563L
aL3684703L
aL3684717L
aL3684719L
aL3684774L
aL3684806L
aL3684812L
aL3686790L
aL4342060L
aL5062549L
aL5062684L
aL5062688L
aL5345362L
aL5346261L
aL5346284L
aL5346333L
aL5439375L
aL5439387L
aL5815349L
aL5816057L
aL5816064L
aL5816199L
aL5821584L
aL5822429L
aL5827523L
aL5827932L
aL5841099L
aL5841108L
aL5934968L
aL5934997L
aL5935007L
aL5935043L
aL5935064L
aL5936317L
aL5936423L
aL6292135L
aL6433361L
aL6903431L
aL7065949L
aL7116475L
aL7116553L
aL7116581L
aL7117289L
aL7140860L
aL7213224L
aL7213260L
aL7268247L
aL7278663L
aL7278869L
aL7278870L
aL7419228L
aL7419447L
aL7443670L
aL7468305L
aL7562164L
aL7612471L
aL7623177L
aL7629755L
aL7636463L
aL7675636L
aL7717945L
aL7723296L
aL7723330L
aL7723334L
aL7785398L
aL7785934L
aL7842263L
aL7842290L
aL7885273L
aL7966854L
aL7966899L
aL7972225L
aL7978314L
aL8044295L
aL8055280L
aL8056155L
aL8082571L
aL8086847L
aL8086952L
aL8098682L
aL8098920L
aL8099250L
aL8100139L
aL8149509L
aL8244883L
aL8286048L
aL8309587L
aL8321174L
aL8321270L
aL8321579L
aL8326140L
aL8370439L
aL8398732L
aL8406864L
aL8491191L
aL8512307L
aL8597562L
aL8604199L
aL8695820L
aL8702621L
aL8720198L
aL8889069L
aL8889228L
aL8889324L
aL8889333L
aL8889362L
aL9005095L
aL9034811L
aL9082277L
aL9082289L
aL9082629L
aL9109194L
aL9135125L
aL9151878L
aL9253856L
aL9254319L
aL9526760L
aL9867348L
aL9919236L
aL9919466L
aL9931372L
aL9931379L
aL9931382L
aL9931821L
aL9998474L
aL9998740L
aL10089686L
aL10093229L
aL10093236L
aL10093280L
aL10093337L
aL10108202L
aL10124310L
aL10124380L
aL10124448L
aL10124935L
aL10125319L
aL10126382L
aL10126388L
aL10228888L
aL10235708L
aL10236104L
aL10236115L
aL10292362L
aL10292366L
aL10347942L
aL10348107L
aL10348151L
aL10348170L
a.